; Function Attrs: null_pointer_is_valid sspstrong uwtable
define hidden i32 @wkssvc_dissect_struct_NetWkstaInfo102(ptr noundef %0, i32 noundef %1, ptr noundef %2, ptr noundef %3, ptr noundef %4, ptr noundef %5, i32 noundef %6, i32 %7) local_unnamed_addr #0 {
  %9 = alloca i32, align 4
  %10 = getelementptr inbounds nuw i8, ptr %4, i64 64
  %11 = load ptr, ptr %10, align 8
  %12 = getelementptr inbounds nuw i8, ptr %11, i64 96
  %13 = load i32, ptr %12, align 8
  %14 = and i32 %13, 1
  %.not = icmp eq i32 %14, 0
  %15 = getelementptr inbounds nuw i8, ptr %4, i64 25
  %16 = load i8, ptr %15, align 1, !range !6, !noundef !7
  %17 = trunc nuw i8 %16 to i1
  br i1 %.not, label %23, label %18

18:                                               ; preds = %8
  %19 = and i32 %1, 7
  %.not71 = icmp eq i32 %19, 0
  %or.cond = or i1 %.not71, %17
  br i1 %or.cond, label %28, label %20

20:                                               ; preds = %18
  %21 = and i32 %1, -8
  %22 = add i32 %21, 8
  br label %28

23:                                               ; preds = %8
  %24 = and i32 %1, 3
  %.not70 = icmp eq i32 %24, 0
  %or.cond75 = or i1 %.not70, %17
  br i1 %or.cond75, label %28, label %25

25:                                               ; preds = %23
  %26 = and i32 %1, -4
  %27 = add i32 %26, 4
  br label %28

28:                                               ; preds = %23, %25, %18, %20
  %.0 = phi i32 [ %1, %18 ], [ %22, %20 ], [ %1, %23 ], [ %27, %25 ]
  %.not72 = icmp eq ptr %3, null
  br i1 %.not72, label %33, label %29

29:                                               ; preds = %28
  %30 = tail call ptr @proto_tree_add_item(ptr noundef nonnull %3, i32 noundef %6, ptr noundef %0, i32 noundef %.0, i32 noundef -1, i32 noundef 0)
  %31 = load i32, ptr @ett_wkssvc_wkssvc_NetWkstaInfo102, align 4
  %32 = tail call ptr @proto_item_add_subtree(ptr noundef %30, i32 noundef %31)
  br label %33

33:                                               ; preds = %29, %28
  %.068 = phi ptr [ %30, %29 ], [ null, %28 ]
  %.067 = phi ptr [ %32, %29 ], [ null, %28 ]
  %34 = load i32, ptr @hf_wkssvc_wkssvc_NetWkstaInfo102_platform_id, align 4
  call void @llvm.lifetime.start.p0(i64 4, ptr nonnull %9) #3
  store i32 0, ptr %9, align 4
  %35 = call i32 @dissect_ndr_uint32(ptr noundef %0, i32 noundef %.0, ptr noundef %2, ptr noundef %.067, ptr noundef %4, ptr noundef %5, i32 noundef %34, ptr noundef nonnull %9)
  call void @llvm.lifetime.end.p0(i64 4, ptr nonnull %9) #3
  %36 = load i32, ptr @hf_wkssvc_wkssvc_NetWkstaInfo102_server_name, align 4
  %37 = call i32 @dissect_ndr_embedded_pointer(ptr noundef %0, i32 noundef %35, ptr noundef %2, ptr noundef %.067, ptr noundef %4, ptr noundef %5, ptr noundef nonnull @wkssvc_dissect_element_NetWkstaInfo102_server_name_, i32 noundef 2, ptr noundef nonnull @.str.598, i32 noundef %36)
  %38 = load i32, ptr @hf_wkssvc_wkssvc_NetWkstaInfo102_domain_name, align 4
  %39 = call i32 @dissect_ndr_embedded_pointer(ptr noundef %0, i32 noundef %37, ptr noundef %2, ptr noundef %.067, ptr noundef %4, ptr noundef %5, ptr noundef nonnull @wkssvc_dissect_element_NetWkstaInfo102_domain_name_, i32 noundef 2, ptr noundef nonnull @.str.599, i32 noundef %38)
  %40 = load i32, ptr @hf_wkssvc_wkssvc_NetWkstaInfo102_version_major, align 4
  %41 = call i32 @PIDL_dissect_uint32(ptr noundef %0, i32 noundef %39, ptr noundef %2, ptr noundef %.067, ptr noundef %4, ptr noundef %5, i32 noundef %40, i32 noundef 0)
  %42 = load i32, ptr @hf_wkssvc_wkssvc_NetWkstaInfo102_version_minor, align 4
  %43 = call i32 @PIDL_dissect_uint32(ptr noundef %0, i32 noundef %41, ptr noundef %2, ptr noundef %.067, ptr noundef %4, ptr noundef %5, i32 noundef %42, i32 noundef 0)
  %44 = load i32, ptr @hf_wkssvc_wkssvc_NetWkstaInfo102_lan_root, align 4
  %45 = call i32 @dissect_ndr_embedded_pointer(ptr noundef %0, i32 noundef %43, ptr noundef %2, ptr noundef %.067, ptr noundef %4, ptr noundef %5, ptr noundef nonnull @wkssvc_dissect_element_NetWkstaInfo102_lan_root_, i32 noundef 2, ptr noundef nonnull @.str.600, i32 noundef %44)
  %46 = load i32, ptr @hf_wkssvc_wkssvc_NetWkstaInfo102_logged_on_users, align 4
  %47 = call i32 @PIDL_dissect_uint32(ptr noundef %0, i32 noundef %45, ptr noundef %2, ptr noundef %.067, ptr noundef %4, ptr noundef %5, i32 noundef %46, i32 noundef 0)
  %48 = sub i32 %47, %.0
  call void @proto_item_set_len(ptr noundef %.068, i32 noundef %48)
  %49 = load ptr, ptr %10, align 8
  %50 = getelementptr inbounds nuw i8, ptr %49, i64 96
  %51 = load i32, ptr %50, align 8
  %52 = and i32 %51, 1
  %.not73 = icmp eq i32 %52, 0
  br i1 %.not73, label %61, label %53

53:                                               ; preds = %33
  %54 = getelementptr inbounds nuw i8, ptr %4, i64 25
  %55 = load i8, ptr %54, align 1, !range !6, !noundef !7
  %56 = trunc nuw i8 %55 to i1
  %57 = and i32 %47, 7
  %.not74 = icmp eq i32 %57, 0
  %or.cond76 = or i1 %.not74, %56
  br i1 %or.cond76, label %61, label %58

58:                                               ; preds = %53
  %59 = and i32 %47, -8
  %60 = add i32 %59, 8
  br label %61

61:                                               ; preds = %58, %53, %33
  %.1 = phi i32 [ %47, %53 ], [ %60, %58 ], [ %47, %33 ]
  ret i32 %.1
}